target datalayout = "e-m:e-p270:32:32-p271:32:32-p272:64:64-i64:64-i128:128-f80:128-n8:16:32:64-S128"
target triple = "x86_64-unknown-linux-gnu"

%"class.Imf_3_2::StdIFStream" = type <{ %"class.Imf_3_2::IStream", ptr, i8, [7 x i8] }>
%"class.Imf_3_2::IStream" = type { ptr, %"class.std::__cxx11::basic_string" }
%"class.std::__cxx11::basic_string" = type { %"struct.std::__cxx11::basic_string<char>::_Alloc_hider", i64, %union.anon }
%"struct.std::__cxx11::basic_string<char>::_Alloc_hider" = type { ptr }
%union.anon = type { i64, [8 x i8] }

; Function Attrs: mustprogress uwtable
define void @_ZN7Imf_3_211StdIFStreamC2ERSt14basic_ifstreamIcSt11char_traitsIcEEPKc(ptr noundef nonnull align 8 dereferenceable(49) %this, ptr noundef nonnull align 8 dereferenceable(256) %is, ptr noundef %fileName) unnamed_addr #4 align 2 {
entry:
  %this.addr = alloca ptr, align 8
  %is.addr = alloca ptr, align 8
  %fileName.addr = alloca ptr, align 8
  store ptr %this, ptr %this.addr, align 8
  store ptr %is, ptr %is.addr, align 8
  store ptr %fileName, ptr %fileName.addr, align 8
  %this1 = load ptr, ptr %this.addr, align 8
  %0 = load ptr, ptr %fileName.addr, align 8
  call void @_ZN7Imf_3_27IStreamC2EPKc(ptr noundef nonnull align 8 dereferenceable(40) %this1, ptr noundef %0)
  store ptr getelementptr inbounds ({ [10 x ptr] }, ptr @_ZTVN7Imf_3_211StdIFStreamE, i32 0, i32 0, i32 2), ptr %this1, align 8
  %_is = getelementptr inbounds %"class.Imf_3_2::StdIFStream", ptr %this1, i32 0, i32 1
  %1 = load ptr, ptr %is.addr, align 8
  store ptr %1, ptr %_is, align 8
  %_deleteStream = getelementptr inbounds %"class.Imf_3_2::StdIFStream", ptr %this1, i32 0, i32 2
  store i8 0, ptr %_deleteStream, align 8
  ret void
}