; Function Attrs: mustprogress uwtable
define void @_ZN7Imf_3_211StdIFStreamC2ERSt14basic_ifstreamIcSt11char_traitsIcEEPKc(ptr noundef nonnull align 8 dereferenceable(49) %this, ptr noundef nonnull align 8 dereferenceable(256) %is, ptr noundef %fileName) unnamed_addr #3 align 2 {
entry:
  tail call void @_ZN7Imf_3_27IStreamC2EPKc(ptr noundef nonnull align 8 dereferenceable(40) %this, ptr noundef %fileName)
  store ptr getelementptr inbounds ({ [10 x ptr] }, ptr @_ZTVN7Imf_3_211StdIFStreamE, i64 0, i32 0, i64 2), ptr %this, align 8
  %_is = getelementptr inbounds i8, ptr %this, i64 40
  store ptr %is, ptr %_is, align 8
  %_deleteStream = getelementptr inbounds i8, ptr %this, i64 48
  store i8 0, ptr %_deleteStream, align 8
  ret void
}